target datalayout = "e-m:e-p270:32:32-p271:32:32-p272:64:64-i64:64-i128:128-f80:128-n8:16:32:64-S128"
target triple = "x86_64-unknown-linux-gnu"

%"class.pugi::xml_node" = type { ptr }
%"class.std::__cxx11::basic_string" = type { %"struct.std::__cxx11::basic_string<char>::_Alloc_hider", i64, %union.anon }
%"struct.std::__cxx11::basic_string<char>::_Alloc_hider" = type { ptr }
%union.anon = type { i64, [8 x i8] }
%"class.std::allocator" = type { i8 }
%"struct.pugi::xml_node_struct" = type { i64, ptr, ptr, ptr, ptr, ptr, ptr, ptr }

@.str = private unnamed_addr constant [16 x i8] c"MetadataBoolean\00", align 1
@.str.1 = private unnamed_addr constant [15 x i8] c"MetadataDouble\00", align 1
@.str.2 = private unnamed_addr constant [14 x i8] c"MetadataFloat\00", align 1
@.str.3 = private unnamed_addr constant [16 x i8] c"MetadataInteger\00", align 1
@.str.4 = private unnamed_addr constant [12 x i8] c"MetadataSet\00", align 1
@.str.5 = private unnamed_addr constant [15 x i8] c"MetadataString\00", align 1
@.str.11 = private unnamed_addr constant [1 x i8] zeroinitializer, align 1
@.str.16 = private unnamed_addr constant [50 x i8] c"basic_string: construction from null is not valid\00", align 1

; Function Attrs: mustprogress nounwind uwtable
define linkonce_odr noundef i64 @_ZNSt11char_traitsIcE6lengthEPKc(ptr noundef %__s) #0 comdat align 2 {
entry:
  %__s.addr = alloca ptr, align 8
  store ptr %__s, ptr %__s.addr, align 8
  %0 = load ptr, ptr %__s.addr, align 8
  %call = call i64 @strlen(ptr noundef %0) #5
  ret i64 %call
}

; Function Attrs: mustprogress nounwind uwtable
define linkonce_odr void @_ZNSt7__cxx1112basic_stringIcSt11char_traitsIcESaIcEE12_Alloc_hiderD2Ev(ptr noundef nonnull align 8 dereferenceable(8) %this) unnamed_addr #0 comdat align 2 {
entry:
  %this.addr = alloca ptr, align 8
  store ptr %this, ptr %this.addr, align 8
  %this1 = load ptr, ptr %this.addr, align 8
  call void @_ZNSaIcED2Ev(ptr noundef nonnull align 1 dereferenceable(1) %this1) #5
  ret void
}

; Function Attrs: mustprogress nounwind uwtable
define linkonce_odr noundef zeroext i1 @_ZSteqIcSt11char_traitsIcESaIcEEbRKNSt7__cxx1112basic_stringIT_T0_T1_EEPKS5_(ptr noundef nonnull align 8 dereferenceable(32) %__lhs, ptr noundef %__rhs) #0 comdat {
entry:
  %__lhs.addr = alloca ptr, align 8
  %__rhs.addr = alloca ptr, align 8
  store ptr %__lhs, ptr %__lhs.addr, align 8
  store ptr %__rhs, ptr %__rhs.addr, align 8
  %0 = load ptr, ptr %__lhs.addr, align 8
  %1 = load ptr, ptr %__rhs.addr, align 8
  %call = call noundef i32 @_ZNKSt7__cxx1112basic_stringIcSt11char_traitsIcESaIcEE7compareEPKc(ptr noundef nonnull align 8 dereferenceable(32) %0, ptr noundef %1) #5
  %cmp = icmp eq i32 %call, 0
  ret i1 %cmp
}

; Function Attrs: mustprogress uwtable
define linkonce_odr void @_ZNSt7__cxx1112basic_stringIcSt11char_traitsIcESaIcEEC2IS3_EEPKcRKS3_(ptr noundef nonnull align 8 dereferenceable(32) %this, ptr noundef %__s, ptr noundef nonnull align 1 dereferenceable(1) %__a) unnamed_addr #2 comdat align 2 personality ptr @__gxx_personality_v0 {
entry:
  %this.addr = alloca ptr, align 8
  %__s.addr = alloca ptr, align 8
  %__a.addr = alloca ptr, align 8
  %exn.slot = alloca ptr, align 8
  %ehselector.slot = alloca i32, align 4
  %__end = alloca ptr, align 8
  store ptr %this, ptr %this.addr, align 8
  store ptr %__s, ptr %__s.addr, align 8
  store ptr %__a, ptr %__a.addr, align 8
  %this1 = load ptr, ptr %this.addr, align 8
  %_M_dataplus = getelementptr inbounds %"class.std::__cxx11::basic_string", ptr %this1, i32 0, i32 0
  %call = call noundef ptr @_ZNSt7__cxx1112basic_stringIcSt11char_traitsIcESaIcEE13_M_local_dataEv(ptr noundef nonnull align 8 dereferenceable(32) %this1)
  %0 = load ptr, ptr %__a.addr, align 8
  call void @_ZNSt7__cxx1112basic_stringIcSt11char_traitsIcESaIcEE12_Alloc_hiderC1EPcRKS3_(ptr noundef nonnull align 8 dereferenceable(8) %_M_dataplus, ptr noundef %call, ptr noundef nonnull align 1 dereferenceable(1) %0)
  %1 = load ptr, ptr %__s.addr, align 8
  %cmp = icmp eq ptr %1, null
  br i1 %cmp, label %if.then, label %if.end

if.then:                                          ; preds = %entry
  invoke void @_ZSt19__throw_logic_errorPKc(ptr noundef @.str.16) #15
          to label %invoke.cont unwind label %lpad

invoke.cont:                                      ; preds = %if.then
  unreachable

lpad:                                             ; preds = %if.end, %if.then
  %2 = landingpad { ptr, i32 }
          cleanup
  %3 = extractvalue { ptr, i32 } %2, 0
  store ptr %3, ptr %exn.slot, align 8
  %4 = extractvalue { ptr, i32 } %2, 1
  store i32 %4, ptr %ehselector.slot, align 4
  call void @_ZNSt7__cxx1112basic_stringIcSt11char_traitsIcESaIcEE12_Alloc_hiderD2Ev(ptr noundef nonnull align 8 dereferenceable(8) %_M_dataplus) #5
  br label %eh.resume

if.end:                                           ; preds = %entry
  %5 = load ptr, ptr %__s.addr, align 8
  %6 = load ptr, ptr %__s.addr, align 8
  %call2 = call noundef i64 @_ZNSt11char_traitsIcE6lengthEPKc(ptr noundef %6)
  %add.ptr = getelementptr inbounds i8, ptr %5, i64 %call2
  store ptr %add.ptr, ptr %__end, align 8
  %7 = load ptr, ptr %__s.addr, align 8
  %8 = load ptr, ptr %__end, align 8
  invoke void @_ZNSt7__cxx1112basic_stringIcSt11char_traitsIcESaIcEE12_M_constructIPKcEEvT_S8_St20forward_iterator_tag(ptr noundef nonnull align 8 dereferenceable(32) %this1, ptr noundef %7, ptr noundef %8)
          to label %invoke.cont3 unwind label %lpad

invoke.cont3:                                     ; preds = %if.end
  ret void

eh.resume:                                        ; preds = %lpad
  %exn = load ptr, ptr %exn.slot, align 8
  %sel = load i32, ptr %ehselector.slot, align 4
  %lpad.val = insertvalue { ptr, i32 } poison, ptr %exn, 0
  %lpad.val4 = insertvalue { ptr, i32 } %lpad.val, i32 %sel, 1
  resume { ptr, i32 } %lpad.val4
}

; Function Attrs: mustprogress nounwind uwtable
define linkonce_odr hidden noundef ptr @_ZNK4pugi8xml_node4nameEv(ptr noundef nonnull align 8 dereferenceable(8) %this) #0 comdat align 2 {
entry:
  %retval = alloca ptr, align 8
  %this.addr = alloca ptr, align 8
  %name = alloca ptr, align 8
  store ptr %this, ptr %this.addr, align 8
  %this1 = load ptr, ptr %this.addr, align 8
  %_root = getelementptr inbounds %"class.pugi::xml_node", ptr %this1, i32 0, i32 0
  %0 = load ptr, ptr %_root, align 8
  %tobool = icmp ne ptr %0, null
  br i1 %tobool, label %if.end, label %if.then

if.then:                                          ; preds = %entry
  store ptr @.str.11, ptr %retval, align 8
  br label %return

if.end:                                           ; preds = %entry
  %_root2 = getelementptr inbounds %"class.pugi::xml_node", ptr %this1, i32 0, i32 0
  %1 = load ptr, ptr %_root2, align 8
  %name3 = getelementptr inbounds %"struct.pugi::xml_node_struct", ptr %1, i32 0, i32 1
  %2 = load ptr, ptr %name3, align 8
  store ptr %2, ptr %name, align 8
  %3 = load ptr, ptr %name, align 8
  %tobool4 = icmp ne ptr %3, null
  br i1 %tobool4, label %cond.true, label %cond.false

cond.true:                                        ; preds = %if.end
  %4 = load ptr, ptr %name, align 8
  br label %cond.end

cond.false:                                       ; preds = %if.end
  br label %cond.end

cond.end:                                         ; preds = %cond.false, %cond.true
  %cond = phi ptr [ %4, %cond.true ], [ @.str.11, %cond.false ]
  store ptr %cond, ptr %retval, align 8
  br label %return

return:                                           ; preds = %cond.end, %if.then
  %5 = load ptr, ptr %retval, align 8
  ret ptr %5
}

; Function Attrs: mustprogress uwtable
define hidden noundef zeroext i1 @_ZN6Assimp11X3DImporter20checkForMetadataNodeERN4pugi8xml_nodeE(ptr noundef nonnull align 8 dereferenceable(120) %this, ptr noundef nonnull align 8 dereferenceable(8) %node) #2 align 2 personality ptr @__gxx_personality_v0 {
entry:
  %retval = alloca i1, align 1
  %this.addr = alloca ptr, align 8
  %node.addr = alloca ptr, align 8
  %name = alloca ptr, align 8
  %ref.tmp = alloca %"class.std::__cxx11::basic_string", align 8
  %ref.tmp2 = alloca %"class.std::allocator", align 1
  %exn.slot = alloca ptr, align 8
  %ehselector.slot = alloca i32, align 4
  %cleanup.dest.slot = alloca i32, align 4
  store ptr %this, ptr %this.addr, align 8
  store ptr %node, ptr %node.addr, align 8
  %this1 = load ptr, ptr %this.addr, align 8
  %0 = load ptr, ptr %node.addr, align 8
  %call = call noundef ptr @_ZNK4pugi8xml_node4nameEv(ptr noundef nonnull align 8 dereferenceable(8) %0)
  call void @_ZNSaIcEC1Ev(ptr noundef nonnull align 1 dereferenceable(1) %ref.tmp2) #5
  invoke void @_ZNSt7__cxx1112basic_stringIcSt11char_traitsIcESaIcEEC2IS3_EEPKcRKS3_(ptr noundef nonnull align 8 dereferenceable(32) %ref.tmp, ptr noundef %call, ptr noundef nonnull align 1 dereferenceable(1) %ref.tmp2)
          to label %invoke.cont unwind label %lpad

invoke.cont:                                      ; preds = %entry
  call void @_ZNSaIcED1Ev(ptr noundef nonnull align 1 dereferenceable(1) %ref.tmp2) #5
  store ptr %ref.tmp, ptr %name, align 8
  %1 = load ptr, ptr %name, align 8
  %call5 = invoke noundef zeroext i1 @_ZSteqIcSt11char_traitsIcESaIcEEbRKNSt7__cxx1112basic_stringIT_T0_T1_EEPKS5_(ptr noundef nonnull align 8 dereferenceable(32) %1, ptr noundef @.str)
          to label %invoke.cont4 unwind label %lpad3

invoke.cont4:                                     ; preds = %invoke.cont
  br i1 %call5, label %if.then, label %if.else

if.then:                                          ; preds = %invoke.cont4
  %2 = load ptr, ptr %node.addr, align 8
  invoke void @_ZN6Assimp11X3DImporter19readMetadataBooleanERN4pugi8xml_nodeE(ptr noundef nonnull align 8 dereferenceable(120) %this1, ptr noundef nonnull align 8 dereferenceable(8) %2)
          to label %invoke.cont6 unwind label %lpad3

invoke.cont6:                                     ; preds = %if.then
  br label %if.end36

lpad:                                             ; preds = %entry
  %3 = landingpad { ptr, i32 }
          cleanup
  %4 = extractvalue { ptr, i32 } %3, 0
  store ptr %4, ptr %exn.slot, align 8
  %5 = extractvalue { ptr, i32 } %3, 1
  store i32 %5, ptr %ehselector.slot, align 4
  call void @_ZNSaIcED1Ev(ptr noundef nonnull align 1 dereferenceable(1) %ref.tmp2) #5
  br label %eh.resume

lpad3:                                            ; preds = %if.then29, %if.else26, %if.then24, %if.else21, %if.then19, %if.else16, %if.then14, %if.else11, %if.then9, %if.else, %if.then, %invoke.cont
  %6 = landingpad { ptr, i32 }
          cleanup
  %7 = extractvalue { ptr, i32 } %6, 0
  store ptr %7, ptr %exn.slot, align 8
  %8 = extractvalue { ptr, i32 } %6, 1
  store i32 %8, ptr %ehselector.slot, align 4
  call void @_ZNSt7__cxx1112basic_stringIcSt11char_traitsIcESaIcEED1Ev(ptr noundef nonnull align 8 dereferenceable(32) %ref.tmp) #5
  br label %eh.resume

if.else:                                          ; preds = %invoke.cont4
  %9 = load ptr, ptr %name, align 8
  %call8 = invoke noundef zeroext i1 @_ZSteqIcSt11char_traitsIcESaIcEEbRKNSt7__cxx1112basic_stringIT_T0_T1_EEPKS5_(ptr noundef nonnull align 8 dereferenceable(32) %9, ptr noundef @.str.1)
          to label %invoke.cont7 unwind label %lpad3

invoke.cont7:                                     ; preds = %if.else
  br i1 %call8, label %if.then9, label %if.else11

if.then9:                                         ; preds = %invoke.cont7
  %10 = load ptr, ptr %node.addr, align 8
  invoke void @_ZN6Assimp11X3DImporter18readMetadataDoubleERN4pugi8xml_nodeE(ptr noundef nonnull align 8 dereferenceable(120) %this1, ptr noundef nonnull align 8 dereferenceable(8) %10)
          to label %invoke.cont10 unwind label %lpad3

invoke.cont10:                                    ; preds = %if.then9
  br label %if.end35

if.else11:                                        ; preds = %invoke.cont7
  %11 = load ptr, ptr %name, align 8
  %call13 = invoke noundef zeroext i1 @_ZSteqIcSt11char_traitsIcESaIcEEbRKNSt7__cxx1112basic_stringIT_T0_T1_EEPKS5_(ptr noundef nonnull align 8 dereferenceable(32) %11, ptr noundef @.str.2)
          to label %invoke.cont12 unwind label %lpad3

invoke.cont12:                                    ; preds = %if.else11
  br i1 %call13, label %if.then14, label %if.else16

if.then14:                                        ; preds = %invoke.cont12
  %12 = load ptr, ptr %node.addr, align 8
  invoke void @_ZN6Assimp11X3DImporter17readMetadataFloatERN4pugi8xml_nodeE(ptr noundef nonnull align 8 dereferenceable(120) %this1, ptr noundef nonnull align 8 dereferenceable(8) %12)
          to label %invoke.cont15 unwind label %lpad3

invoke.cont15:                                    ; preds = %if.then14
  br label %if.end34

if.else16:                                        ; preds = %invoke.cont12
  %13 = load ptr, ptr %name, align 8
  %call18 = invoke noundef zeroext i1 @_ZSteqIcSt11char_traitsIcESaIcEEbRKNSt7__cxx1112basic_stringIT_T0_T1_EEPKS5_(ptr noundef nonnull align 8 dereferenceable(32) %13, ptr noundef @.str.3)
          to label %invoke.cont17 unwind label %lpad3

invoke.cont17:                                    ; preds = %if.else16
  br i1 %call18, label %if.then19, label %if.else21

if.then19:                                        ; preds = %invoke.cont17
  %14 = load ptr, ptr %node.addr, align 8
  invoke void @_ZN6Assimp11X3DImporter19readMetadataIntegerERN4pugi8xml_nodeE(ptr noundef nonnull align 8 dereferenceable(120) %this1, ptr noundef nonnull align 8 dereferenceable(8) %14)
          to label %invoke.cont20 unwind label %lpad3

invoke.cont20:                                    ; preds = %if.then19
  br label %if.end33

if.else21:                                        ; preds = %invoke.cont17
  %15 = load ptr, ptr %name, align 8
  %call23 = invoke noundef zeroext i1 @_ZSteqIcSt11char_traitsIcESaIcEEbRKNSt7__cxx1112basic_stringIT_T0_T1_EEPKS5_(ptr noundef nonnull align 8 dereferenceable(32) %15, ptr noundef @.str.4)
          to label %invoke.cont22 unwind label %lpad3

invoke.cont22:                                    ; preds = %if.else21
  br i1 %call23, label %if.then24, label %if.else26

if.then24:                                        ; preds = %invoke.cont22
  %16 = load ptr, ptr %node.addr, align 8
  invoke void @_ZN6Assimp11X3DImporter15readMetadataSetERN4pugi8xml_nodeE(ptr noundef nonnull align 8 dereferenceable(120) %this1, ptr noundef nonnull align 8 dereferenceable(8) %16)
          to label %invoke.cont25 unwind label %lpad3

invoke.cont25:                                    ; preds = %if.then24
  br label %if.end32

if.else26:                                        ; preds = %invoke.cont22
  %17 = load ptr, ptr %name, align 8
  %call28 = invoke noundef zeroext i1 @_ZSteqIcSt11char_traitsIcESaIcEEbRKNSt7__cxx1112basic_stringIT_T0_T1_EEPKS5_(ptr noundef nonnull align 8 dereferenceable(32) %17, ptr noundef @.str.5)
          to label %invoke.cont27 unwind label %lpad3

invoke.cont27:                                    ; preds = %if.else26
  br i1 %call28, label %if.then29, label %if.else31

if.then29:                                        ; preds = %invoke.cont27
  %18 = load ptr, ptr %node.addr, align 8
  invoke void @_ZN6Assimp11X3DImporter18readMetadataStringERN4pugi8xml_nodeE(ptr noundef nonnull align 8 dereferenceable(120) %this1, ptr noundef nonnull align 8 dereferenceable(8) %18)
          to label %invoke.cont30 unwind label %lpad3

invoke.cont30:                                    ; preds = %if.then29
  br label %if.end

if.else31:                                        ; preds = %invoke.cont27
  store i1 false, ptr %retval, align 1
  store i32 1, ptr %cleanup.dest.slot, align 4
  br label %cleanup

if.end:                                           ; preds = %invoke.cont30
  br label %if.end32

if.end32:                                         ; preds = %if.end, %invoke.cont25
  br label %if.end33

if.end33:                                         ; preds = %if.end32, %invoke.cont20
  br label %if.end34

if.end34:                                         ; preds = %if.end33, %invoke.cont15
  br label %if.end35

if.end35:                                         ; preds = %if.end34, %invoke.cont10
  br label %if.end36

if.end36:                                         ; preds = %if.end35, %invoke.cont6
  store i1 true, ptr %retval, align 1
  store i32 1, ptr %cleanup.dest.slot, align 4
  br label %cleanup

cleanup:                                          ; preds = %if.end36, %if.else31
  call void @_ZNSt7__cxx1112basic_stringIcSt11char_traitsIcESaIcEED1Ev(ptr noundef nonnull align 8 dereferenceable(32) %ref.tmp) #5
  %19 = load i1, ptr %retval, align 1
  ret i1 %19

eh.resume:                                        ; preds = %lpad3, %lpad
  %exn = load ptr, ptr %exn.slot, align 8
  %sel = load i32, ptr %ehselector.slot, align 4
  %lpad.val = insertvalue { ptr, i32 } poison, ptr %exn, 0
  %lpad.val37 = insertvalue { ptr, i32 } %lpad.val, i32 %sel, 1
  resume { ptr, i32 } %lpad.val37
}