; Function Attrs: mustprogress uwtable
define hidden noundef zeroext i1 @_ZN6Assimp11X3DImporter20checkForMetadataNodeERN4pugi8xml_nodeE(ptr noundef nonnull align 8 dereferenceable(120) %this, ptr noundef nonnull align 8 dereferenceable(8) %node) local_unnamed_addr #2 align 2 personality ptr @__gxx_personality_v0 {
entry:
  %ref.tmp = alloca %"class.std::__cxx11::basic_string", align 8
  %ref.tmp2 = alloca %"class.std::allocator", align 1
  %0 = load ptr, ptr %node, align 8
  %tobool.not.i = icmp eq ptr %0, null
  br i1 %tobool.not.i, label %_ZNK4pugi8xml_node4nameEv.exit, label %if.end.i

if.end.i:                                         ; preds = %entry
  %name3.i = getelementptr inbounds i8, ptr %0, i64 8
  %1 = load ptr, ptr %name3.i, align 8
  %tobool4.not.i = icmp eq ptr %1, null
  %cond.i = select i1 %tobool4.not.i, ptr @.str.11, ptr %1
  br label %_ZNK4pugi8xml_node4nameEv.exit

_ZNK4pugi8xml_node4nameEv.exit:                   ; preds = %entry, %if.end.i
  %retval.0.i = phi ptr [ %cond.i, %if.end.i ], [ @.str.11, %entry ]
  call void @_ZNSaIcEC1Ev(ptr noundef nonnull align 1 dereferenceable(1) %ref.tmp2) #17
  %call.i14 = invoke noundef ptr @_ZNSt7__cxx1112basic_stringIcSt11char_traitsIcESaIcEE13_M_local_dataEv(ptr noundef nonnull align 8 dereferenceable(32) %ref.tmp)
          to label %call.i.noexc unwind label %lpad

call.i.noexc:                                     ; preds = %_ZNK4pugi8xml_node4nameEv.exit
  invoke void @_ZNSt7__cxx1112basic_stringIcSt11char_traitsIcESaIcEE12_Alloc_hiderC1EPcRKS3_(ptr noundef nonnull align 8 dereferenceable(8) %ref.tmp, ptr noundef %call.i14, ptr noundef nonnull align 1 dereferenceable(1) %ref.tmp2)
          to label %.noexc unwind label %lpad

.noexc:                                           ; preds = %call.i.noexc
  %call.i.i = call noundef i64 @strlen(ptr noundef nonnull dereferenceable(1) %retval.0.i) #17
  %add.ptr.i = getelementptr inbounds i8, ptr %retval.0.i, i64 %call.i.i
  invoke void @_ZNSt7__cxx1112basic_stringIcSt11char_traitsIcESaIcEE12_M_constructIPKcEEvT_S8_St20forward_iterator_tag(ptr noundef nonnull align 8 dereferenceable(32) %ref.tmp, ptr noundef nonnull %retval.0.i, ptr noundef nonnull %add.ptr.i)
          to label %invoke.cont unwind label %lpad.i

lpad.i:                                           ; preds = %.noexc
  %2 = landingpad { ptr, i32 }
          cleanup
  call void @_ZNSaIcED2Ev(ptr noundef nonnull align 1 dereferenceable(1) %ref.tmp) #17
  br label %lpad.body

invoke.cont:                                      ; preds = %.noexc
  call void @_ZNSaIcED1Ev(ptr noundef nonnull align 1 dereferenceable(1) %ref.tmp2) #17
  %call.i = call noundef i32 @_ZNKSt7__cxx1112basic_stringIcSt11char_traitsIcESaIcEE7compareEPKc(ptr noundef nonnull align 8 dereferenceable(32) %ref.tmp, ptr noundef nonnull @.str) #17
  %cmp.i = icmp eq i32 %call.i, 0
  br i1 %cmp.i, label %if.then, label %if.else

if.then:                                          ; preds = %invoke.cont
  invoke void @_ZN6Assimp11X3DImporter19readMetadataBooleanERN4pugi8xml_nodeE(ptr noundef nonnull align 8 dereferenceable(120) %this, ptr noundef nonnull align 8 dereferenceable(8) %node)
          to label %cleanup unwind label %lpad3

lpad:                                             ; preds = %call.i.noexc, %_ZNK4pugi8xml_node4nameEv.exit
  %3 = landingpad { ptr, i32 }
          cleanup
  br label %lpad.body

lpad.body:                                        ; preds = %lpad.i, %lpad
  %eh.lpad-body = phi { ptr, i32 } [ %3, %lpad ], [ %2, %lpad.i ]
  call void @_ZNSaIcED1Ev(ptr noundef nonnull align 1 dereferenceable(1) %ref.tmp2) #17
  br label %eh.resume

lpad3:                                            ; preds = %if.then29, %if.then24, %if.then19, %if.then14, %if.then9, %if.then
  %4 = landingpad { ptr, i32 }
          cleanup
  call void @_ZNSt7__cxx1112basic_stringIcSt11char_traitsIcESaIcEED1Ev(ptr noundef nonnull align 8 dereferenceable(32) %ref.tmp) #17
  br label %eh.resume

if.else:                                          ; preds = %invoke.cont
  %call.i15 = call noundef i32 @_ZNKSt7__cxx1112basic_stringIcSt11char_traitsIcESaIcEE7compareEPKc(ptr noundef nonnull align 8 dereferenceable(32) %ref.tmp, ptr noundef nonnull @.str.1) #17
  %cmp.i16 = icmp eq i32 %call.i15, 0
  br i1 %cmp.i16, label %if.then9, label %if.else11

if.then9:                                         ; preds = %if.else
  invoke void @_ZN6Assimp11X3DImporter18readMetadataDoubleERN4pugi8xml_nodeE(ptr noundef nonnull align 8 dereferenceable(120) %this, ptr noundef nonnull align 8 dereferenceable(8) %node)
          to label %cleanup unwind label %lpad3

if.else11:                                        ; preds = %if.else
  %call.i17 = call noundef i32 @_ZNKSt7__cxx1112basic_stringIcSt11char_traitsIcESaIcEE7compareEPKc(ptr noundef nonnull align 8 dereferenceable(32) %ref.tmp, ptr noundef nonnull @.str.2) #17
  %cmp.i18 = icmp eq i32 %call.i17, 0
  br i1 %cmp.i18, label %if.then14, label %if.else16

if.then14:                                        ; preds = %if.else11
  invoke void @_ZN6Assimp11X3DImporter17readMetadataFloatERN4pugi8xml_nodeE(ptr noundef nonnull align 8 dereferenceable(120) %this, ptr noundef nonnull align 8 dereferenceable(8) %node)
          to label %cleanup unwind label %lpad3

if.else16:                                        ; preds = %if.else11
  %call.i19 = call noundef i32 @_ZNKSt7__cxx1112basic_stringIcSt11char_traitsIcESaIcEE7compareEPKc(ptr noundef nonnull align 8 dereferenceable(32) %ref.tmp, ptr noundef nonnull @.str.3) #17
  %cmp.i20 = icmp eq i32 %call.i19, 0
  br i1 %cmp.i20, label %if.then19, label %if.else21

if.then19:                                        ; preds = %if.else16
  invoke void @_ZN6Assimp11X3DImporter19readMetadataIntegerERN4pugi8xml_nodeE(ptr noundef nonnull align 8 dereferenceable(120) %this, ptr noundef nonnull align 8 dereferenceable(8) %node)
          to label %cleanup unwind label %lpad3

if.else21:                                        ; preds = %if.else16
  %call.i21 = call noundef i32 @_ZNKSt7__cxx1112basic_stringIcSt11char_traitsIcESaIcEE7compareEPKc(ptr noundef nonnull align 8 dereferenceable(32) %ref.tmp, ptr noundef nonnull @.str.4) #17
  %cmp.i22 = icmp eq i32 %call.i21, 0
  br i1 %cmp.i22, label %if.then24, label %if.else26

if.then24:                                        ; preds = %if.else21
  invoke void @_ZN6Assimp11X3DImporter15readMetadataSetERN4pugi8xml_nodeE(ptr noundef nonnull align 8 dereferenceable(120) %this, ptr noundef nonnull align 8 dereferenceable(8) %node)
          to label %cleanup unwind label %lpad3

if.else26:                                        ; preds = %if.else21
  %call.i23 = call noundef i32 @_ZNKSt7__cxx1112basic_stringIcSt11char_traitsIcESaIcEE7compareEPKc(ptr noundef nonnull align 8 dereferenceable(32) %ref.tmp, ptr noundef nonnull @.str.5) #17
  %cmp.i24 = icmp eq i32 %call.i23, 0
  br i1 %cmp.i24, label %if.then29, label %cleanup

if.then29:                                        ; preds = %if.else26
  invoke void @_ZN6Assimp11X3DImporter18readMetadataStringERN4pugi8xml_nodeE(ptr noundef nonnull align 8 dereferenceable(120) %this, ptr noundef nonnull align 8 dereferenceable(8) %node)
          to label %cleanup unwind label %lpad3

cleanup:                                          ; preds = %if.then, %if.then14, %if.then24, %if.then29, %if.then19, %if.then9, %if.else26
  %retval.0 = phi i1 [ false, %if.else26 ], [ true, %if.then9 ], [ true, %if.then19 ], [ true, %if.then29 ], [ true, %if.then24 ], [ true, %if.then14 ], [ true, %if.then ]
  call void @_ZNSt7__cxx1112basic_stringIcSt11char_traitsIcESaIcEED1Ev(ptr noundef nonnull align 8 dereferenceable(32) %ref.tmp) #17
  ret i1 %retval.0

eh.resume:                                        ; preds = %lpad3, %lpad.body
  %.pn = phi { ptr, i32 } [ %4, %lpad3 ], [ %eh.lpad-body, %lpad.body ]
  resume { ptr, i32 } %.pn
}